target datalayout = "e-m:e-p270:32:32-p271:32:32-p272:64:64-i64:64-i128:128-f80:128-n8:16:32:64-S128"
target triple = "x86_64-pc-linux-gnu"

%union.pthread_mutex_t = type { %struct.__pthread_mutex_s }
%struct.__pthread_mutex_s = type { i32, i32, i32, i32, i32, i16, i16, %struct.__pthread_internal_list }
%struct.__pthread_internal_list = type { ptr, ptr }
%struct.forward = type { %struct.slurm_node_alias_addrs_t, i16, i16, ptr, i32, i16, i16 }
%struct.slurm_node_alias_addrs_t = type { i64, ptr, ptr, i32, ptr }
%struct.forward_struct = type { ptr, ptr, i32, i16, %union.pthread_mutex_t, %union.pthread_cond_t, ptr, i32 }
%union.pthread_cond_t = type { %struct.__pthread_cond_s }
%struct.__pthread_cond_s = type { %union.__atomic_wide_counter, %union.__atomic_wide_counter, [2 x i32], [2 x i32], i32, i32, [2 x i32] }
%union.__atomic_wide_counter = type { i64 }
%struct.sockaddr_storage = type { i16, [118 x i8], i64 }
%struct.slurm_msg = type { %struct.sockaddr_storage, ptr, i32, i32, i32, i8, i32, i8, i32, ptr, ptr, i32, ptr, ptr, i16, i8, i16, i16, %struct.forward, ptr, %struct.sockaddr_storage, ptr }

@.str = private unnamed_addr constant [29 x i8] c"%s: pthread_mutex_lock(): %m\00", align 1
@.str.2 = private unnamed_addr constant [10 x i8] c"forward.c\00", align 1
@.str.3 = private unnamed_addr constant [31 x i8] c"%s: pthread_mutex_unlock(): %m\00", align 1
@.str.10 = private unnamed_addr constant [34 x i8] c"%s:%d %s: pthread_cond_wait(): %m\00", align 1
@.str.15 = private unnamed_addr constant [15 x i8] c"looking for %d\00", align 1
@__func__.forward_wait = private unnamed_addr constant [13 x i8] c"forward_wait\00", align 1
@.str.16 = private unnamed_addr constant [12 x i8] c"Got back %d\00", align 1
@.str.17 = private unnamed_addr constant [13 x i8] c"Got them all\00", align 1

; Function Attrs: nounwind uwtable
define dso_local void @forward_wait(ptr noundef %0) #0 {
  %2 = alloca ptr, align 8
  %3 = alloca i32, align 4
  %4 = alloca i32, align 4
  %5 = alloca i32, align 4
  %6 = alloca i32, align 4
  store ptr %0, ptr %2, align 8
  call void @llvm.lifetime.start.p0(i64 4, ptr %3) #8
  store i32 0, ptr %3, align 4
  %7 = load ptr, ptr %2, align 8
  %8 = getelementptr inbounds nuw %struct.slurm_msg, ptr %7, i32 0, i32 19
  %9 = load ptr, ptr %8, align 8
  %10 = icmp ne ptr %9, null
  br i1 %10, label %11, label %143

11:                                               ; preds = %1
  br label %12

12:                                               ; preds = %11
  br label %13

13:                                               ; preds = %12
  %14 = call i32 @get_log_level()
  %15 = icmp sge i32 %14, 6
  br i1 %15, label %16, label %23

16:                                               ; preds = %13
  %17 = load ptr, ptr %2, align 8
  %18 = getelementptr inbounds nuw %struct.slurm_msg, ptr %17, i32 0, i32 19
  %19 = load ptr, ptr %18, align 8
  %20 = getelementptr inbounds nuw %struct.forward_struct, ptr %19, i32 0, i32 3
  %21 = load i16, ptr %20, align 4
  %22 = zext i16 %21 to i32
  call void (i32, ptr, ...) @log_var(i32 noundef 6, ptr noundef @.str.15, i32 noundef %22)
  br label %23

23:                                               ; preds = %16, %13
  br label %24

24:                                               ; preds = %23
  br label %25

25:                                               ; preds = %24
  br label %26

26:                                               ; preds = %25
  br label %27

27:                                               ; preds = %26
  br label %28

28:                                               ; preds = %27
  call void @llvm.lifetime.start.p0(i64 4, ptr %4) #8
  %29 = load ptr, ptr %2, align 8
  %30 = getelementptr inbounds nuw %struct.slurm_msg, ptr %29, i32 0, i32 19
  %31 = load ptr, ptr %30, align 8
  %32 = getelementptr inbounds nuw %struct.forward_struct, ptr %31, i32 0, i32 4
  %33 = call i32 @pthread_mutex_lock(ptr noundef %32) #8
  store i32 %33, ptr %4, align 4
  %34 = load i32, ptr %4, align 4
  %35 = icmp ne i32 %34, 0
  br i1 %35, label %36, label %39

36:                                               ; preds = %28
  %37 = load i32, ptr %4, align 4
  %38 = call ptr @__errno_location() #9
  store i32 %37, ptr %38, align 4
  call void (ptr, ...) @fatal_abort(ptr noundef @.str, ptr noundef @__func__.forward_wait) #10
  unreachable

39:                                               ; preds = %28
  call void @llvm.lifetime.end.p0(i64 4, ptr %4) #8
  br label %40

40:                                               ; preds = %39
  br label %41

41:                                               ; preds = %40
  store i32 0, ptr %3, align 4
  %42 = load ptr, ptr %2, align 8
  %43 = getelementptr inbounds nuw %struct.slurm_msg, ptr %42, i32 0, i32 21
  %44 = load ptr, ptr %43, align 8
  %45 = icmp ne ptr %44, null
  br i1 %45, label %46, label %51

46:                                               ; preds = %41
  %47 = load ptr, ptr %2, align 8
  %48 = getelementptr inbounds nuw %struct.slurm_msg, ptr %47, i32 0, i32 21
  %49 = load ptr, ptr %48, align 8
  %50 = call i32 @list_count(ptr noundef %49)
  store i32 %50, ptr %3, align 4
  br label %51

51:                                               ; preds = %46, %41
  br label %52

52:                                               ; preds = %51
  br label %53

53:                                               ; preds = %52
  %54 = call i32 @get_log_level()
  %55 = icmp sge i32 %54, 6
  br i1 %55, label %56, label %58

56:                                               ; preds = %53
  %57 = load i32, ptr %3, align 4
  call void (i32, ptr, ...) @log_var(i32 noundef 6, ptr noundef @.str.16, i32 noundef %57)
  br label %58

58:                                               ; preds = %56, %53
  br label %59

59:                                               ; preds = %58
  br label %60

60:                                               ; preds = %59
  br label %61

61:                                               ; preds = %60
  br label %62

62:                                               ; preds = %61
  br label %63

63:                                               ; preds = %112, %62
  %64 = load i32, ptr %3, align 4
  %65 = load ptr, ptr %2, align 8
  %66 = getelementptr inbounds nuw %struct.slurm_msg, ptr %65, i32 0, i32 19
  %67 = load ptr, ptr %66, align 8
  %68 = getelementptr inbounds nuw %struct.forward_struct, ptr %67, i32 0, i32 3
  %69 = load i16, ptr %68, align 4
  %70 = zext i16 %69 to i32
  %71 = icmp slt i32 %64, %70
  br i1 %71, label %72, label %113

72:                                               ; preds = %63
  br label %73

73:                                               ; preds = %72
  call void @llvm.lifetime.start.p0(i64 4, ptr %5) #8
  %74 = load ptr, ptr %2, align 8
  %75 = getelementptr inbounds nuw %struct.slurm_msg, ptr %74, i32 0, i32 19
  %76 = load ptr, ptr %75, align 8
  %77 = getelementptr inbounds nuw %struct.forward_struct, ptr %76, i32 0, i32 5
  %78 = load ptr, ptr %2, align 8
  %79 = getelementptr inbounds nuw %struct.slurm_msg, ptr %78, i32 0, i32 19
  %80 = load ptr, ptr %79, align 8
  %81 = getelementptr inbounds nuw %struct.forward_struct, ptr %80, i32 0, i32 4
  %82 = call i32 @pthread_cond_wait(ptr noundef %77, ptr noundef %81)
  store i32 %82, ptr %5, align 4
  %83 = load i32, ptr %5, align 4
  %84 = icmp ne i32 %83, 0
  br i1 %84, label %85, label %89

85:                                               ; preds = %73
  %86 = load i32, ptr %5, align 4
  %87 = call ptr @__errno_location() #9
  store i32 %86, ptr %87, align 4
  %88 = call i32 (ptr, ...) @error(ptr noundef @.str.10, ptr noundef @.str.2, i32 noundef 908, ptr noundef @__func__.forward_wait)
  br label %89

89:                                               ; preds = %85, %73
  call void @llvm.lifetime.end.p0(i64 4, ptr %5) #8
  br label %90

90:                                               ; preds = %89
  br label %91

91:                                               ; preds = %90
  %92 = load ptr, ptr %2, align 8
  %93 = getelementptr inbounds nuw %struct.slurm_msg, ptr %92, i32 0, i32 21
  %94 = load ptr, ptr %93, align 8
  %95 = icmp ne ptr %94, null
  br i1 %95, label %96, label %101

96:                                               ; preds = %91
  %97 = load ptr, ptr %2, align 8
  %98 = getelementptr inbounds nuw %struct.slurm_msg, ptr %97, i32 0, i32 21
  %99 = load ptr, ptr %98, align 8
  %100 = call i32 @list_count(ptr noundef %99)
  store i32 %100, ptr %3, align 4
  br label %101

101:                                              ; preds = %96, %91
  br label %102

102:                                              ; preds = %101
  br label %103

103:                                              ; preds = %102
  %104 = call i32 @get_log_level()
  %105 = icmp sge i32 %104, 6
  br i1 %105, label %106, label %108

106:                                              ; preds = %103
  %107 = load i32, ptr %3, align 4
  call void (i32, ptr, ...) @log_var(i32 noundef 6, ptr noundef @.str.16, i32 noundef %107)
  br label %108

108:                                              ; preds = %106, %103
  br label %109

109:                                              ; preds = %108
  br label %110

110:                                              ; preds = %109
  br label %111

111:                                              ; preds = %110
  br label %112

112:                                              ; preds = %111
  br label %63, !llvm.loop !17

113:                                              ; preds = %63
  br label %114

114:                                              ; preds = %113
  br label %115

115:                                              ; preds = %114
  %116 = call i32 @get_log_level()
  %117 = icmp sge i32 %116, 6
  br i1 %117, label %118, label %119

118:                                              ; preds = %115
  call void (i32, ptr, ...) @log_var(i32 noundef 6, ptr noundef @.str.17)
  br label %119

119:                                              ; preds = %118, %115
  br label %120

120:                                              ; preds = %119
  br label %121

121:                                              ; preds = %120
  br label %122

122:                                              ; preds = %121
  br label %123

123:                                              ; preds = %122
  br label %124

124:                                              ; preds = %123
  call void @llvm.lifetime.start.p0(i64 4, ptr %6) #8
  %125 = load ptr, ptr %2, align 8
  %126 = getelementptr inbounds nuw %struct.slurm_msg, ptr %125, i32 0, i32 19
  %127 = load ptr, ptr %126, align 8
  %128 = getelementptr inbounds nuw %struct.forward_struct, ptr %127, i32 0, i32 4
  %129 = call i32 @pthread_mutex_unlock(ptr noundef %128) #8
  store i32 %129, ptr %6, align 4
  %130 = load i32, ptr %6, align 4
  %131 = icmp ne i32 %130, 0
  br i1 %131, label %132, label %135

132:                                              ; preds = %124
  %133 = load i32, ptr %6, align 4
  %134 = call ptr @__errno_location() #9
  store i32 %133, ptr %134, align 4
  call void (ptr, ...) @fatal_abort(ptr noundef @.str.3, ptr noundef @__func__.forward_wait) #10
  unreachable

135:                                              ; preds = %124
  call void @llvm.lifetime.end.p0(i64 4, ptr %6) #8
  br label %136

136:                                              ; preds = %135
  br label %137

137:                                              ; preds = %136
  %138 = load ptr, ptr %2, align 8
  %139 = getelementptr inbounds nuw %struct.slurm_msg, ptr %138, i32 0, i32 19
  %140 = load ptr, ptr %139, align 8
  call void @destroy_forward_struct(ptr noundef %140)
  %141 = load ptr, ptr %2, align 8
  %142 = getelementptr inbounds nuw %struct.slurm_msg, ptr %141, i32 0, i32 19
  store ptr null, ptr %142, align 8
  br label %143

143:                                              ; preds = %137, %1
  call void @llvm.lifetime.end.p0(i64 4, ptr %3) #8
  ret void
}