; Function Attrs: nounwind uwtable
define dso_local void @forward_wait(ptr noundef captures(none) %0) local_unnamed_addr #0 {
  %2 = getelementptr inbounds nuw i8, ptr %0, i64 280
  %3 = load ptr, ptr %2, align 8
  %.not = icmp eq ptr %3, null
  br i1 %.not, label %65, label %4

4:                                                ; preds = %1
  %5 = tail call i32 @get_log_level() #10
  %6 = icmp sgt i32 %5, 5
  br i1 %6, label %7, label %12

7:                                                ; preds = %4
  %8 = load ptr, ptr %2, align 8
  %9 = getelementptr inbounds nuw i8, ptr %8, i64 20
  %10 = load i16, ptr %9, align 4
  %11 = zext i16 %10 to i32
  tail call void (i32, ptr, ...) @log_var(i32 noundef 6, ptr noundef nonnull @.str.15, i32 noundef %11) #10
  br label %12

12:                                               ; preds = %4, %7
  %13 = load ptr, ptr %2, align 8
  %14 = getelementptr inbounds nuw i8, ptr %13, i64 24
  %15 = tail call i32 @pthread_mutex_lock(ptr noundef nonnull %14) #10
  %.not26 = icmp eq i32 %15, 0
  br i1 %.not26, label %18, label %16

16:                                               ; preds = %12
  %17 = tail call ptr @__errno_location() #11
  store i32 %15, ptr %17, align 4
  tail call void (ptr, ...) @fatal_abort(ptr noundef nonnull @.str, ptr noundef nonnull @__func__.forward_wait) #12
  unreachable

18:                                               ; preds = %12
  %19 = getelementptr inbounds nuw i8, ptr %0, i64 416
  %20 = load ptr, ptr %19, align 8
  %.not27 = icmp eq ptr %20, null
  br i1 %.not27, label %23, label %21

21:                                               ; preds = %18
  %22 = tail call i32 @list_count(ptr noundef nonnull %20) #10
  br label %23

23:                                               ; preds = %21, %18
  %.0 = phi i32 [ %22, %21 ], [ 0, %18 ]
  %24 = tail call i32 @get_log_level() #10
  %25 = icmp sgt i32 %24, 5
  br i1 %25, label %26, label %27

26:                                               ; preds = %23
  tail call void (i32, ptr, ...) @log_var(i32 noundef 6, ptr noundef nonnull @.str.16, i32 noundef %.0) #10
  br label %27

27:                                               ; preds = %26, %23
  %28 = load ptr, ptr %2, align 8
  %29 = getelementptr inbounds nuw i8, ptr %28, i64 20
  %30 = load i16, ptr %29, align 4
  %31 = zext i16 %30 to i32
  %32 = icmp slt i32 %.0, %31
  br i1 %32, label %.lr.ph, label %._crit_edge

.lr.ph:                                           ; preds = %27, %48
  %33 = phi ptr [ %49, %48 ], [ %28, %27 ]
  %.131 = phi i32 [ %.2, %48 ], [ %.0, %27 ]
  %34 = getelementptr inbounds nuw i8, ptr %33, i64 64
  %35 = getelementptr inbounds nuw i8, ptr %33, i64 24
  %36 = tail call i32 @pthread_cond_wait(ptr noundef nonnull %34, ptr noundef nonnull %35) #10
  %.not29 = icmp eq i32 %36, 0
  br i1 %.not29, label %40, label %37

37:                                               ; preds = %.lr.ph
  %38 = tail call ptr @__errno_location() #11
  store i32 %36, ptr %38, align 4
  %39 = tail call i32 (ptr, ...) @error(ptr noundef nonnull @.str.10, ptr noundef nonnull @.str.2, i32 noundef 908, ptr noundef nonnull @__func__.forward_wait) #10
  br label %40

40:                                               ; preds = %37, %.lr.ph
  %41 = load ptr, ptr %19, align 8
  %.not30 = icmp eq ptr %41, null
  br i1 %.not30, label %44, label %42

42:                                               ; preds = %40
  %43 = tail call i32 @list_count(ptr noundef nonnull %41) #10
  br label %44

44:                                               ; preds = %42, %40
  %.2 = phi i32 [ %43, %42 ], [ %.131, %40 ]
  %45 = tail call i32 @get_log_level() #10
  %46 = icmp sgt i32 %45, 5
  br i1 %46, label %47, label %48

47:                                               ; preds = %44
  tail call void (i32, ptr, ...) @log_var(i32 noundef 6, ptr noundef nonnull @.str.16, i32 noundef %.2) #10
  br label %48

48:                                               ; preds = %47, %44
  %49 = load ptr, ptr %2, align 8
  %50 = getelementptr inbounds nuw i8, ptr %49, i64 20
  %51 = load i16, ptr %50, align 4
  %52 = zext i16 %51 to i32
  %53 = icmp slt i32 %.2, %52
  br i1 %53, label %.lr.ph, label %._crit_edge, !llvm.loop !17

._crit_edge:                                      ; preds = %48, %27
  %54 = tail call i32 @get_log_level() #10
  %55 = icmp sgt i32 %54, 5
  br i1 %55, label %56, label %57

56:                                               ; preds = %._crit_edge
  tail call void (i32, ptr, ...) @log_var(i32 noundef 6, ptr noundef nonnull @.str.17) #10
  br label %57

57:                                               ; preds = %._crit_edge, %56
  %58 = load ptr, ptr %2, align 8
  %59 = getelementptr inbounds nuw i8, ptr %58, i64 24
  %60 = tail call i32 @pthread_mutex_unlock(ptr noundef nonnull %59) #10
  %.not28 = icmp eq i32 %60, 0
  br i1 %.not28, label %63, label %61

61:                                               ; preds = %57
  %62 = tail call ptr @__errno_location() #11
  store i32 %60, ptr %62, align 4
  tail call void (ptr, ...) @fatal_abort(ptr noundef nonnull @.str.3, ptr noundef nonnull @__func__.forward_wait) #12
  unreachable

63:                                               ; preds = %57
  %64 = load ptr, ptr %2, align 8
  tail call void @destroy_forward_struct(ptr noundef %64)
  store ptr null, ptr %2, align 8
  br label %65

65:                                               ; preds = %63, %1
  ret void
}